; Function Attrs: nounwind uwtable
define ptr @l_List_forIn_x27_loop___at_Lean_Compiler_LCNF_Simp_FunDeclInfoMap_format___spec__1___boxed(ptr noundef %0, ptr noundef %1, ptr noundef %2, ptr noundef %3, ptr noundef %4, ptr noundef readnone captures(none) %5, ptr noundef %6, ptr noundef %7, ptr noundef %8, ptr noundef %9, ptr noundef %10) local_unnamed_addr #1 {
  %12 = tail call ptr @l_List_forIn_x27_loop___at_Lean_Compiler_LCNF_Simp_FunDeclInfoMap_format___spec__1(ptr poison, ptr poison, ptr poison, ptr noundef %3, ptr noundef %4, ptr poison, ptr noundef %6, ptr noundef %7, ptr noundef %8, ptr noundef %9, ptr noundef %10)
  %13 = ptrtoint ptr %9 to i64
  %14 = and i64 %13, 1
  %.not = icmp eq i64 %14, 0
  br i1 %.not, label %15, label %lean_dec.exit24

15:                                               ; preds = %11
  %16 = load i32, ptr %9, align 4, !tbaa !4
  %17 = icmp sgt i32 %16, 1
  br i1 %17, label %18, label %20, !prof !9

18:                                               ; preds = %15
  %19 = add nsw i32 %16, -1
  store i32 %19, ptr %9, align 4, !tbaa !4
  br label %lean_dec.exit24

20:                                               ; preds = %15
  %.not.i = icmp eq i32 %16, 0
  br i1 %.not.i, label %lean_dec.exit24, label %21

21:                                               ; preds = %20
  tail call void @lean_dec_ref_cold(ptr noundef nonnull %9) #6
  br label %lean_dec.exit24

lean_dec.exit24:                                  ; preds = %21, %20, %18, %11
  %22 = ptrtoint ptr %8 to i64
  %23 = and i64 %22, 1
  %.not37 = icmp eq i64 %23, 0
  br i1 %.not37, label %24, label %lean_dec.exit23

24:                                               ; preds = %lean_dec.exit24
  %25 = load i32, ptr %8, align 4, !tbaa !4
  %26 = icmp sgt i32 %25, 1
  br i1 %26, label %27, label %29, !prof !9

27:                                               ; preds = %24
  %28 = add nsw i32 %25, -1
  store i32 %28, ptr %8, align 4, !tbaa !4
  br label %lean_dec.exit23

29:                                               ; preds = %24
  %.not.i25 = icmp eq i32 %25, 0
  br i1 %.not.i25, label %lean_dec.exit23, label %30

30:                                               ; preds = %29
  tail call void @lean_dec_ref_cold(ptr noundef nonnull %8) #6
  br label %lean_dec.exit23

lean_dec.exit23:                                  ; preds = %30, %29, %27, %lean_dec.exit24
  %31 = ptrtoint ptr %7 to i64
  %32 = and i64 %31, 1
  %.not38 = icmp eq i64 %32, 0
  br i1 %.not38, label %33, label %lean_dec.exit22

33:                                               ; preds = %lean_dec.exit23
  %34 = load i32, ptr %7, align 4, !tbaa !4
  %35 = icmp sgt i32 %34, 1
  br i1 %35, label %36, label %38, !prof !9

36:                                               ; preds = %33
  %37 = add nsw i32 %34, -1
  store i32 %37, ptr %7, align 4, !tbaa !4
  br label %lean_dec.exit22

38:                                               ; preds = %33
  %.not.i27 = icmp eq i32 %34, 0
  br i1 %.not.i27, label %lean_dec.exit22, label %39

39:                                               ; preds = %38
  tail call void @lean_dec_ref_cold(ptr noundef nonnull %7) #6
  br label %lean_dec.exit22

lean_dec.exit22:                                  ; preds = %39, %38, %36, %lean_dec.exit23
  %40 = ptrtoint ptr %6 to i64
  %41 = and i64 %40, 1
  %.not39 = icmp eq i64 %41, 0
  br i1 %.not39, label %42, label %lean_dec.exit21

42:                                               ; preds = %lean_dec.exit22
  %43 = load i32, ptr %6, align 4, !tbaa !4
  %44 = icmp sgt i32 %43, 1
  br i1 %44, label %45, label %47, !prof !9

45:                                               ; preds = %42
  %46 = add nsw i32 %43, -1
  store i32 %46, ptr %6, align 4, !tbaa !4
  br label %lean_dec.exit21

47:                                               ; preds = %42
  %.not.i29 = icmp eq i32 %43, 0
  br i1 %.not.i29, label %lean_dec.exit21, label %48

48:                                               ; preds = %47
  tail call void @lean_dec_ref_cold(ptr noundef nonnull %6) #6
  br label %lean_dec.exit21

lean_dec.exit21:                                  ; preds = %48, %47, %45, %lean_dec.exit22
  %49 = ptrtoint ptr %2 to i64
  %50 = and i64 %49, 1
  %.not40 = icmp eq i64 %50, 0
  br i1 %.not40, label %51, label %lean_dec.exit20

51:                                               ; preds = %lean_dec.exit21
  %52 = load i32, ptr %2, align 4, !tbaa !4
  %53 = icmp sgt i32 %52, 1
  br i1 %53, label %54, label %56, !prof !9

54:                                               ; preds = %51
  %55 = add nsw i32 %52, -1
  store i32 %55, ptr %2, align 4, !tbaa !4
  br label %lean_dec.exit20

56:                                               ; preds = %51
  %.not.i31 = icmp eq i32 %52, 0
  br i1 %.not.i31, label %lean_dec.exit20, label %57

57:                                               ; preds = %56
  tail call void @lean_dec_ref_cold(ptr noundef nonnull %2) #6
  br label %lean_dec.exit20

lean_dec.exit20:                                  ; preds = %57, %56, %54, %lean_dec.exit21
  %58 = ptrtoint ptr %1 to i64
  %59 = and i64 %58, 1
  %.not41 = icmp eq i64 %59, 0
  br i1 %.not41, label %60, label %lean_dec.exit19

60:                                               ; preds = %lean_dec.exit20
  %61 = load i32, ptr %1, align 4, !tbaa !4
  %62 = icmp sgt i32 %61, 1
  br i1 %62, label %63, label %65, !prof !9

63:                                               ; preds = %60
  %64 = add nsw i32 %61, -1
  store i32 %64, ptr %1, align 4, !tbaa !4
  br label %lean_dec.exit19

65:                                               ; preds = %60
  %.not.i33 = icmp eq i32 %61, 0
  br i1 %.not.i33, label %lean_dec.exit19, label %66

66:                                               ; preds = %65
  tail call void @lean_dec_ref_cold(ptr noundef nonnull %1) #6
  br label %lean_dec.exit19

lean_dec.exit19:                                  ; preds = %66, %65, %63, %lean_dec.exit20
  %67 = ptrtoint ptr %0 to i64
  %68 = and i64 %67, 1
  %.not42 = icmp eq i64 %68, 0
  br i1 %.not42, label %69, label %lean_dec.exit

69:                                               ; preds = %lean_dec.exit19
  %70 = load i32, ptr %0, align 4, !tbaa !4
  %71 = icmp sgt i32 %70, 1
  br i1 %71, label %72, label %74, !prof !9

72:                                               ; preds = %69
  %73 = add nsw i32 %70, -1
  store i32 %73, ptr %0, align 4, !tbaa !4
  br label %lean_dec.exit

74:                                               ; preds = %69
  %.not.i35 = icmp eq i32 %70, 0
  br i1 %.not.i35, label %lean_dec.exit, label %75

75:                                               ; preds = %74
  tail call void @lean_dec_ref_cold(ptr noundef nonnull %0) #6
  br label %lean_dec.exit

lean_dec.exit:                                    ; preds = %75, %74, %72, %lean_dec.exit19
  ret ptr %12
}